target datalayout = "e-m:e-p270:32:32-p271:32:32-p272:64:64-i64:64-i128:128-f80:128-n8:16:32:64-S128"
target triple = "x86_64-pc-linux-gnu"

; Function Attrs: nounwind uwtable
define zeroext i8 @ma_channel_map_get_channel(ptr noundef %0, i32 noundef %1, i32 noundef %2) #0 {
  %4 = alloca i8, align 1
  %5 = alloca ptr, align 8
  %6 = alloca i32, align 4
  %7 = alloca i32, align 4
  store ptr %0, ptr %5, align 8, !tbaa !10
  store i32 %1, ptr %6, align 4, !tbaa !8
  store i32 %2, ptr %7, align 4, !tbaa !8
  %8 = load ptr, ptr %5, align 8, !tbaa !10
  %9 = icmp eq ptr %8, null
  br i1 %9, label %10, label %14

10:                                               ; preds = %3
  %11 = load i32, ptr %6, align 4, !tbaa !8
  %12 = load i32, ptr %7, align 4, !tbaa !8
  %13 = call zeroext i8 @ma_channel_map_init_standard_channel(i32 noundef 0, i32 noundef %11, i32 noundef %12)
  store i8 %13, ptr %4, align 1
  br label %25

14:                                               ; preds = %3
  %15 = load i32, ptr %7, align 4, !tbaa !8
  %16 = load i32, ptr %6, align 4, !tbaa !8
  %17 = icmp uge i32 %15, %16
  br i1 %17, label %18, label %19

18:                                               ; preds = %14
  store i8 0, ptr %4, align 1
  br label %25

19:                                               ; preds = %14
  %20 = load ptr, ptr %5, align 8, !tbaa !10
  %21 = load i32, ptr %7, align 4, !tbaa !8
  %22 = zext i32 %21 to i64
  %23 = getelementptr inbounds nuw i8, ptr %20, i64 %22
  %24 = load i8, ptr %23, align 1, !tbaa !14
  store i8 %24, ptr %4, align 1
  br label %25

25:                                               ; preds = %19, %18, %10
  %26 = load i8, ptr %4, align 1
  ret i8 %26
}

; Function Attrs: nounwind uwtable
define internal i32 @ma_channel_map_build_shuffle_table(ptr noundef %0, i32 noundef %1, ptr noundef %2, i32 noundef %3, ptr noundef %4) #0 {
  %6 = alloca i32, align 4
  %7 = alloca ptr, align 8
  %8 = alloca i32, align 4
  %9 = alloca ptr, align 8
  %10 = alloca i32, align 4
  %11 = alloca ptr, align 8
  %12 = alloca i32, align 4
  %13 = alloca i32, align 4
  %14 = alloca i32, align 4
  %15 = alloca i8, align 1
  %16 = alloca i8, align 1
  store ptr %0, ptr %7, align 8, !tbaa !10
  store i32 %1, ptr %8, align 4, !tbaa !8
  store ptr %2, ptr %9, align 8, !tbaa !10
  store i32 %3, ptr %10, align 4, !tbaa !8
  store ptr %4, ptr %11, align 8, !tbaa !10
  call void @llvm.lifetime.start.p0(i64 4, ptr %12) #16
  call void @llvm.lifetime.start.p0(i64 4, ptr %13) #16
  %17 = load ptr, ptr %11, align 8, !tbaa !10
  %18 = icmp eq ptr %17, null
  br i1 %18, label %25, label %19

19:                                               ; preds = %5
  %20 = load i32, ptr %8, align 4, !tbaa !8
  %21 = icmp eq i32 %20, 0
  br i1 %21, label %25, label %22

22:                                               ; preds = %19
  %23 = load i32, ptr %10, align 4, !tbaa !8
  %24 = icmp eq i32 %23, 0
  br i1 %24, label %25, label %26

25:                                               ; preds = %22, %19, %5
  store i32 -2, ptr %6, align 4
  store i32 1, ptr %14, align 4
  br label %99

26:                                               ; preds = %22
  store i32 0, ptr %13, align 4, !tbaa !8
  br label %27

27:                                               ; preds = %95, %26
  %28 = load i32, ptr %13, align 4, !tbaa !8
  %29 = load i32, ptr %10, align 4, !tbaa !8
  %30 = icmp ult i32 %28, %29
  br i1 %30, label %31, label %98

31:                                               ; preds = %27
  call void @llvm.lifetime.start.p0(i64 1, ptr %15) #16
  %32 = load ptr, ptr %11, align 8, !tbaa !10
  %33 = load i32, ptr %13, align 4, !tbaa !8
  %34 = zext i32 %33 to i64
  %35 = getelementptr inbounds nuw i8, ptr %32, i64 %34
  store i8 -1, ptr %35, align 1, !tbaa !14
  %36 = load ptr, ptr %9, align 8, !tbaa !10
  %37 = load i32, ptr %10, align 4, !tbaa !8
  %38 = load i32, ptr %13, align 4, !tbaa !8
  %39 = call zeroext i8 @ma_channel_map_get_channel(ptr noundef %36, i32 noundef %37, i32 noundef %38)
  store i8 %39, ptr %15, align 1, !tbaa !14
  store i32 0, ptr %12, align 4, !tbaa !8
  br label %40

40:                                               ; preds = %91, %31
  %41 = load i32, ptr %12, align 4, !tbaa !8
  %42 = load i32, ptr %8, align 4, !tbaa !8
  %43 = icmp ult i32 %41, %42
  br i1 %43, label %44, label %94

44:                                               ; preds = %40
  call void @llvm.lifetime.start.p0(i64 1, ptr %16) #16
  %45 = load ptr, ptr %7, align 8, !tbaa !10
  %46 = load i32, ptr %8, align 4, !tbaa !8
  %47 = load i32, ptr %12, align 4, !tbaa !8
  %48 = call zeroext i8 @ma_channel_map_get_channel(ptr noundef %45, i32 noundef %46, i32 noundef %47)
  store i8 %48, ptr %16, align 1, !tbaa !14
  %49 = load i8, ptr %15, align 1, !tbaa !14
  %50 = zext i8 %49 to i32
  %51 = load i8, ptr %16, align 1, !tbaa !14
  %52 = zext i8 %51 to i32
  %53 = icmp eq i32 %50, %52
  br i1 %53, label %54, label %61

54:                                               ; preds = %44
  %55 = load i32, ptr %12, align 4, !tbaa !8
  %56 = trunc i32 %55 to i8
  %57 = load ptr, ptr %11, align 8, !tbaa !10
  %58 = load i32, ptr %13, align 4, !tbaa !8
  %59 = zext i32 %58 to i64
  %60 = getelementptr inbounds nuw i8, ptr %57, i64 %59
  store i8 %56, ptr %60, align 1, !tbaa !14
  store i32 5, ptr %14, align 4
  br label %88

61:                                               ; preds = %44
  %62 = load i8, ptr %15, align 1, !tbaa !14
  %63 = zext i8 %62 to i32
  switch i32 %63, label %86 [
    i32 2, label %64
    i32 11, label %64
    i32 3, label %75
    i32 12, label %75
  ]

64:                                               ; preds = %61, %61
  %65 = load i8, ptr %16, align 1, !tbaa !14
  %66 = zext i8 %65 to i32
  switch i32 %66, label %74 [
    i32 2, label %67
    i32 11, label %67
  ]

67:                                               ; preds = %64, %64
  %68 = load i32, ptr %12, align 4, !tbaa !8
  %69 = trunc i32 %68 to i8
  %70 = load ptr, ptr %11, align 8, !tbaa !10
  %71 = load i32, ptr %13, align 4, !tbaa !8
  %72 = zext i32 %71 to i64
  %73 = getelementptr inbounds nuw i8, ptr %70, i64 %72
  store i8 %69, ptr %73, align 1, !tbaa !14
  br label %74

74:                                               ; preds = %64, %67
  br label %87

75:                                               ; preds = %61, %61
  %76 = load i8, ptr %16, align 1, !tbaa !14
  %77 = zext i8 %76 to i32
  switch i32 %77, label %85 [
    i32 3, label %78
    i32 12, label %78
  ]

78:                                               ; preds = %75, %75
  %79 = load i32, ptr %12, align 4, !tbaa !8
  %80 = trunc i32 %79 to i8
  %81 = load ptr, ptr %11, align 8, !tbaa !10
  %82 = load i32, ptr %13, align 4, !tbaa !8
  %83 = zext i32 %82 to i64
  %84 = getelementptr inbounds nuw i8, ptr %81, i64 %83
  store i8 %80, ptr %84, align 1, !tbaa !14
  br label %85

85:                                               ; preds = %75, %78
  br label %87

86:                                               ; preds = %61
  br label %87

87:                                               ; preds = %86, %85, %74
  store i32 0, ptr %14, align 4
  br label %88

88:                                               ; preds = %87, %54
  call void @llvm.lifetime.end.p0(i64 1, ptr %16) #16
  %89 = load i32, ptr %14, align 4
  switch i32 %89, label %101 [
    i32 0, label %90
    i32 5, label %94
  ]

90:                                               ; preds = %88
  br label %91

91:                                               ; preds = %90
  %92 = load i32, ptr %12, align 4, !tbaa !8
  %93 = add i32 %92, 1
  store i32 %93, ptr %12, align 4, !tbaa !8
  br label %40, !llvm.loop !769

94:                                               ; preds = %88, %40
  call void @llvm.lifetime.end.p0(i64 1, ptr %15) #16
  br label %95

95:                                               ; preds = %94
  %96 = load i32, ptr %13, align 4, !tbaa !8
  %97 = add i32 %96, 1
  store i32 %97, ptr %13, align 4, !tbaa !8
  br label %27, !llvm.loop !770

98:                                               ; preds = %27
  store i32 0, ptr %6, align 4
  store i32 1, ptr %14, align 4
  br label %99

99:                                               ; preds = %98, %25
  call void @llvm.lifetime.end.p0(i64 4, ptr %13) #16
  call void @llvm.lifetime.end.p0(i64 4, ptr %12) #16
  %100 = load i32, ptr %6, align 4
  ret i32 %100

101:                                              ; preds = %88
  unreachable
}