; Function Attrs: nofree norecurse nosync nounwind memory(argmem: readwrite) uwtable
define internal fastcc range(i32 -2, 1) i32 @ma_channel_map_build_shuffle_table(ptr noundef readonly captures(address_is_null) %0, i32 noundef %1, ptr noundef readonly captures(address_is_null) %2, i32 noundef %3, ptr noundef writeonly captures(address_is_null) %4) unnamed_addr #23 {
  %6 = icmp eq ptr %4, null
  %7 = icmp eq i32 %1, 0
  %or.cond = or i1 %7, %6
  %8 = icmp eq i32 %3, 0
  %or.cond3 = or i1 %8, %or.cond
  br i1 %or.cond3, label %.loopexit50, label %.preheader

.preheader:                                       ; preds = %5
  %9 = icmp eq ptr %2, null
  %10 = icmp eq ptr %0, null
  %11 = icmp ugt i32 %1, 8
  %wide.trip.count105 = zext i32 %3 to i64
  br i1 %10, label %.preheader.split.us.split.us, label %.preheader.split.us.split.preheader

.preheader.split.us.split.preheader:              ; preds = %.preheader
  %wide.trip.count = zext i32 %1 to i64
  %wide.trip.count89 = zext i32 %1 to i64
  %wide.trip.count94 = zext i32 %1 to i64
  br label %.preheader.split.us.split

.preheader.split.us.split.us:                     ; preds = %.preheader, %..loopexit_crit_edge.split.us.us.us
  %indvars.iv102 = phi i64 [ %indvars.iv.next103, %..loopexit_crit_edge.split.us.us.us ], [ 0, %.preheader ]
  %12 = getelementptr inbounds nuw i8, ptr %4, i64 %indvars.iv102
  store i8 -1, ptr %12, align 1, !tbaa !7
  br i1 %9, label %16, label %13

13:                                               ; preds = %.preheader.split.us.split.us
  %14 = getelementptr inbounds nuw i8, ptr %2, i64 %indvars.iv102
  %15 = load i8, ptr %14, align 1, !tbaa !7
  br label %ma_channel_map_get_channel.exit.us.us

16:                                               ; preds = %.preheader.split.us.split.us
  %17 = trunc nuw i64 %indvars.iv102 to i32
  %18 = tail call fastcc zeroext i8 @ma_channel_map_init_standard_channel(i32 noundef 0, i32 noundef %3, i32 noundef %17)
  br label %ma_channel_map_get_channel.exit.us.us

ma_channel_map_get_channel.exit.us.us:            ; preds = %16, %13
  %.0.i.us.us = phi i8 [ %18, %16 ], [ %15, %13 ]
  br label %19

..loopexit_crit_edge.split.us.us.us:              ; preds = %47, %.split.us.us.us
  %indvars.iv.next103 = add nuw nsw i64 %indvars.iv102, 1
  %exitcond106.not = icmp eq i64 %indvars.iv.next103, %wide.trip.count105
  br i1 %exitcond106.not, label %.loopexit50, label %.preheader.split.us.split.us, !llvm.loop !967

19:                                               ; preds = %47, %ma_channel_map_get_channel.exit.us.us
  %.03552.us.us.us = phi i32 [ 0, %ma_channel_map_get_channel.exit.us.us ], [ %48, %47 ]
  switch i32 %1, label %31 [
    i32 7, label %29
    i32 1, label %ma_channel_map_get_channel.exit45.us.us.us
    i32 2, label %28
    i32 3, label %26
    i32 4, label %24
    i32 5, label %22
    i32 6, label %20
  ]

20:                                               ; preds = %19
  %21 = icmp ult i32 %.03552.us.us.us, 6
  br i1 %21, label %switch.lookup, label %ma_channel_map_get_channel.exit45.us.us.us

22:                                               ; preds = %19
  %23 = icmp ult i32 %.03552.us.us.us, 5
  br i1 %23, label %switch.lookup125, label %ma_channel_map_get_channel.exit45.us.us.us

24:                                               ; preds = %19
  %25 = icmp ult i32 %.03552.us.us.us, 4
  br i1 %25, label %switch.lookup130, label %ma_channel_map_get_channel.exit45.us.us.us

26:                                               ; preds = %19
  %27 = icmp ult i32 %.03552.us.us.us, 3
  br i1 %27, label %switch.lookup134, label %ma_channel_map_get_channel.exit45.us.us.us

28:                                               ; preds = %19
  %switch.selectcmp.i56.i.us.us.us = icmp eq i32 %.03552.us.us.us, 1
  %switch.select.i57.i.us.us.us = select i1 %switch.selectcmp.i56.i.us.us.us, i8 3, i8 0
  %switch.selectcmp19.i.i.us.us.us = icmp eq i32 %.03552.us.us.us, 0
  %switch.select20.i.i.us.us.us = select i1 %switch.selectcmp19.i.i.us.us.us, i8 2, i8 %switch.select.i57.i.us.us.us
  br label %ma_channel_map_get_channel.exit45.us.us.us

29:                                               ; preds = %19
  %30 = icmp ult i32 %.03552.us.us.us, 7
  br i1 %30, label %switch.lookup135, label %ma_channel_map_get_channel.exit45.us.us.us

31:                                               ; preds = %19
  %32 = icmp ult i32 %.03552.us.us.us, 8
  br i1 %32, label %switch.lookup140, label %33

33:                                               ; preds = %31
  %34 = icmp ult i32 %.03552.us.us.us, 32
  %or.cond.i58.i.us.us.us = and i1 %11, %34
  br i1 %or.cond.i58.i.us.us.us, label %35, label %ma_channel_map_get_channel.exit45.us.us.us

35:                                               ; preds = %33
  %36 = trunc nuw i32 %.03552.us.us.us to i8
  %37 = add nuw nsw i8 %36, 12
  br label %ma_channel_map_get_channel.exit45.us.us.us

switch.lookup:                                    ; preds = %20
  %38 = shl nuw nsw i32 %.03552.us.us.us, 3
  %switch.shiftamt = zext nneg i32 %38 to i48
  %switch.downshift = lshr i48 13241468322562, %switch.shiftamt
  %switch.masked = trunc i48 %switch.downshift to i8
  br label %ma_channel_map_get_channel.exit45.us.us.us

switch.lookup125:                                 ; preds = %22
  %39 = shl nuw nsw i32 %.03552.us.us.us, 3
  %switch.shiftamt127 = zext nneg i32 %39 to i40
  %switch.downshift128 = lshr i40 30165697282, %switch.shiftamt127
  %switch.masked129 = trunc i40 %switch.downshift128 to i8
  br label %ma_channel_map_get_channel.exit45.us.us.us

switch.lookup130:                                 ; preds = %24
  %switch.shiftamt131 = shl nuw nsw i32 %.03552.us.us.us, 3
  %switch.downshift132 = lshr i32 168035074, %switch.shiftamt131
  %switch.masked133 = trunc i32 %switch.downshift132 to i8
  br label %ma_channel_map_get_channel.exit45.us.us.us

switch.lookup134:                                 ; preds = %26
  %switch.idx.cast = trunc nuw i32 %.03552.us.us.us to i8
  %switch.offset = add nuw nsw i8 %switch.idx.cast, 2
  br label %ma_channel_map_get_channel.exit45.us.us.us

switch.lookup135:                                 ; preds = %29
  %40 = shl nuw nsw i32 %.03552.us.us.us, 3
  %switch.shiftamt137 = zext nneg i32 %40 to i56
  %switch.downshift138 = lshr i56 3389837382255362, %switch.shiftamt137
  %switch.masked139 = trunc i56 %switch.downshift138 to i8
  br label %ma_channel_map_get_channel.exit45.us.us.us

switch.lookup140:                                 ; preds = %31
  %41 = shl nuw nsw i32 %.03552.us.us.us, 3
  %switch.shiftamt142 = zext nneg i32 %41 to i64
  %switch.downshift143 = lshr i64 867795075634299650, %switch.shiftamt142
  %switch.masked144 = trunc i64 %switch.downshift143 to i8
  br label %ma_channel_map_get_channel.exit45.us.us.us

ma_channel_map_get_channel.exit45.us.us.us:       ; preds = %switch.lookup140, %20, %22, %24, %26, %29, %switch.lookup135, %switch.lookup134, %switch.lookup130, %switch.lookup125, %switch.lookup, %35, %33, %28, %19
  %.0.i44.us.us.us = phi i8 [ %37, %35 ], [ 1, %19 ], [ 0, %33 ], [ %switch.select20.i.i.us.us.us, %28 ], [ %switch.masked, %switch.lookup ], [ %switch.masked129, %switch.lookup125 ], [ %switch.masked133, %switch.lookup130 ], [ %switch.offset, %switch.lookup134 ], [ %switch.masked139, %switch.lookup135 ], [ 0, %29 ], [ 0, %26 ], [ 0, %24 ], [ 0, %22 ], [ 0, %20 ], [ %switch.masked144, %switch.lookup140 ]
  %42 = icmp eq i8 %.0.i.us.us, %.0.i44.us.us.us
  br i1 %42, label %.split.us.us.us, label %43

43:                                               ; preds = %ma_channel_map_get_channel.exit45.us.us.us
  switch i8 %.0.i.us.us, label %47 [
    i8 2, label %45
    i8 11, label %45
    i8 3, label %44
    i8 12, label %44
  ]

44:                                               ; preds = %43, %43
  switch i8 %.0.i44.us.us.us, label %47 [
    i8 3, label %.sink.split
    i8 12, label %.sink.split
  ]

45:                                               ; preds = %43, %43
  switch i8 %.0.i44.us.us.us, label %47 [
    i8 2, label %.sink.split
    i8 11, label %.sink.split
  ]

.sink.split:                                      ; preds = %45, %45, %44, %44
  %46 = trunc i32 %.03552.us.us.us to i8
  store i8 %46, ptr %12, align 1, !tbaa !7
  br label %47

47:                                               ; preds = %.sink.split, %45, %44, %43
  %48 = add nuw i32 %.03552.us.us.us, 1
  %exitcond101.not = icmp eq i32 %48, %1
  br i1 %exitcond101.not, label %..loopexit_crit_edge.split.us.us.us, label %19, !llvm.loop !968

.split.us.us.us:                                  ; preds = %ma_channel_map_get_channel.exit45.us.us.us
  %49 = trunc i32 %.03552.us.us.us to i8
  store i8 %49, ptr %12, align 1, !tbaa !7
  br label %..loopexit_crit_edge.split.us.us.us

.preheader.split.us.split:                        ; preds = %.preheader.split.us.split.preheader, %..loopexit_crit_edge.split.us71
  %indvars.iv96 = phi i64 [ 0, %.preheader.split.us.split.preheader ], [ %indvars.iv.next97, %..loopexit_crit_edge.split.us71 ]
  %50 = getelementptr inbounds nuw i8, ptr %4, i64 %indvars.iv96
  store i8 -1, ptr %50, align 1, !tbaa !7
  br i1 %9, label %54, label %51

51:                                               ; preds = %.preheader.split.us.split
  %52 = getelementptr inbounds nuw i8, ptr %2, i64 %indvars.iv96
  %53 = load i8, ptr %52, align 1, !tbaa !7
  br label %ma_channel_map_get_channel.exit.us

54:                                               ; preds = %.preheader.split.us.split
  %55 = trunc nuw i64 %indvars.iv96 to i32
  %56 = tail call fastcc zeroext i8 @ma_channel_map_init_standard_channel(i32 noundef 0, i32 noundef %3, i32 noundef %55)
  br label %ma_channel_map_get_channel.exit.us

ma_channel_map_get_channel.exit.us:               ; preds = %54, %51
  %.0.i.us = phi i8 [ %56, %54 ], [ %53, %51 ]
  %.0.i.fr.us = freeze i8 %.0.i.us
  switch i8 %.0.i.fr.us, label %ma_channel_map_get_channel.exit45.us63 [
    i8 2, label %ma_channel_map_get_channel.exit45.us53.us.preheader
    i8 11, label %ma_channel_map_get_channel.exit45.us53.us.preheader
    i8 3, label %ma_channel_map_get_channel.exit45.us58.us.preheader
    i8 12, label %ma_channel_map_get_channel.exit45.us58.us.preheader
  ]

ma_channel_map_get_channel.exit45.us58.us.preheader: ; preds = %ma_channel_map_get_channel.exit.us, %ma_channel_map_get_channel.exit.us
  br label %ma_channel_map_get_channel.exit45.us58.us

ma_channel_map_get_channel.exit45.us53.us.preheader: ; preds = %ma_channel_map_get_channel.exit.us, %ma_channel_map_get_channel.exit.us
  br label %ma_channel_map_get_channel.exit45.us53.us

ma_channel_map_get_channel.exit45.us63:           ; preds = %ma_channel_map_get_channel.exit.us, %60
  %indvars.iv91 = phi i64 [ %indvars.iv.next92, %60 ], [ 0, %ma_channel_map_get_channel.exit.us ]
  %57 = getelementptr inbounds nuw i8, ptr %0, i64 %indvars.iv91
  %58 = load i8, ptr %57, align 1, !tbaa !7
  %59 = icmp eq i8 %.0.i.fr.us, %58
  br i1 %59, label %.split.us70, label %60

60:                                               ; preds = %ma_channel_map_get_channel.exit45.us63
  %indvars.iv.next92 = add nuw nsw i64 %indvars.iv91, 1
  %exitcond95.not = icmp eq i64 %indvars.iv.next92, %wide.trip.count94
  br i1 %exitcond95.not, label %..loopexit_crit_edge.split.us71, label %ma_channel_map_get_channel.exit45.us63, !llvm.loop !968

..loopexit_crit_edge.split.us71:                  ; preds = %75, %68, %60, %.split.us70
  %indvars.iv.next97 = add nuw nsw i64 %indvars.iv96, 1
  %exitcond100.not = icmp eq i64 %indvars.iv.next97, %wide.trip.count105
  br i1 %exitcond100.not, label %.loopexit50, label %.preheader.split.us.split, !llvm.loop !967

.split.us70:                                      ; preds = %ma_channel_map_get_channel.exit45.us58.us, %ma_channel_map_get_channel.exit45.us53.us, %ma_channel_map_get_channel.exit45.us63
  %.us-phi56.us.in = phi i64 [ %indvars.iv91, %ma_channel_map_get_channel.exit45.us63 ], [ %indvars.iv86, %ma_channel_map_get_channel.exit45.us53.us ], [ %indvars.iv, %ma_channel_map_get_channel.exit45.us58.us ]
  %61 = trunc i64 %.us-phi56.us.in to i8
  store i8 %61, ptr %50, align 1, !tbaa !7
  br label %..loopexit_crit_edge.split.us71

ma_channel_map_get_channel.exit45.us53.us:        ; preds = %ma_channel_map_get_channel.exit45.us53.us.preheader, %68
  %indvars.iv86 = phi i64 [ %indvars.iv.next87, %68 ], [ 0, %ma_channel_map_get_channel.exit45.us53.us.preheader ]
  %62 = getelementptr inbounds nuw i8, ptr %0, i64 %indvars.iv86
  %63 = load i8, ptr %62, align 1, !tbaa !7
  %64 = icmp eq i8 %.0.i.fr.us, %63
  br i1 %64, label %.split.us70, label %65

65:                                               ; preds = %ma_channel_map_get_channel.exit45.us53.us
  switch i8 %63, label %68 [
    i8 2, label %66
    i8 11, label %66
  ]

66:                                               ; preds = %65, %65
  %67 = trunc i64 %indvars.iv86 to i8
  store i8 %67, ptr %50, align 1, !tbaa !7
  br label %68

68:                                               ; preds = %66, %65
  %indvars.iv.next87 = add nuw nsw i64 %indvars.iv86, 1
  %exitcond90.not = icmp eq i64 %indvars.iv.next87, %wide.trip.count89
  br i1 %exitcond90.not, label %..loopexit_crit_edge.split.us71, label %ma_channel_map_get_channel.exit45.us53.us, !llvm.loop !968

ma_channel_map_get_channel.exit45.us58.us:        ; preds = %ma_channel_map_get_channel.exit45.us58.us.preheader, %75
  %indvars.iv = phi i64 [ %indvars.iv.next, %75 ], [ 0, %ma_channel_map_get_channel.exit45.us58.us.preheader ]
  %69 = getelementptr inbounds nuw i8, ptr %0, i64 %indvars.iv
  %70 = load i8, ptr %69, align 1, !tbaa !7
  %71 = icmp eq i8 %.0.i.fr.us, %70
  br i1 %71, label %.split.us70, label %72

72:                                               ; preds = %ma_channel_map_get_channel.exit45.us58.us
  switch i8 %70, label %75 [
    i8 3, label %73
    i8 12, label %73
  ]

73:                                               ; preds = %72, %72
  %74 = trunc i64 %indvars.iv to i8
  store i8 %74, ptr %50, align 1, !tbaa !7
  br label %75

75:                                               ; preds = %73, %72
  %indvars.iv.next = add nuw nsw i64 %indvars.iv, 1
  %exitcond.not = icmp eq i64 %indvars.iv.next, %wide.trip.count
  br i1 %exitcond.not, label %..loopexit_crit_edge.split.us71, label %ma_channel_map_get_channel.exit45.us58.us, !llvm.loop !968

.loopexit50:                                      ; preds = %..loopexit_crit_edge.split.us71, %..loopexit_crit_edge.split.us.us.us, %5
  %.0 = phi i32 [ -2, %5 ], [ 0, %..loopexit_crit_edge.split.us.us.us ], [ 0, %..loopexit_crit_edge.split.us71 ]
  ret i32 %.0
}